; ModuleID = '50/1723.c'
source_filename = "50/1723.c"
target datalayout = "e-m:e-p270:32:32-p271:32:32-p272:64:64-i64:64-f80:128-n8:16:32:64-S128"
target triple = "x86_64-pc-linux-gnu"

@.str = private unnamed_addr constant [3 x i8] c"%d\00", align 1
@__const.main.month = private unnamed_addr constant [12 x i32] [i32 0, i32 31, i32 28, i32 31, i32 30, i32 31, i32 30, i32 31, i32 31, i32 30, i32 31, i32 30], align 16
@.str.1 = private unnamed_addr constant [4 x i8] c"%d\0A\00", align 1
@.str.2 = private unnamed_addr constant [6 x i8] c"empty\00", align 1

; Function Attrs: noinline nounwind uwtable
define dso_local i32 @main() #0 {
  %1 = alloca i32, align 4
  %2 = alloca i32, align 4
  %3 = alloca [12 x i32], align 16
  %4 = alloca [12 x i32], align 16
  %5 = alloca i32, align 4
  %6 = alloca i32, align 4
  %7 = alloca i32, align 4
  %8 = alloca [53 x i32], align 16
  %9 = alloca i32, align 4
  %10 = alloca i32, align 4
  store i32 0, i32* %1, align 4
  %11 = call i32 (i8*, ...) @__isoc99_scanf(i8* getelementptr inbounds ([3 x i8], [3 x i8]* @.str, i64 0, i64 0), i32* %2)
  %12 = bitcast [12 x i32]* %3 to i8*
  call void @llvm.memcpy.p0i8.p0i8.i64(i8* align 16 %12, i8* align 16 bitcast ([12 x i32]* @__const.main.month to i8*), i64 48, i1 false)
  %13 = getelementptr inbounds [12 x i32], [12 x i32]* %4, i64 0, i64 0
  store i32 13, i32* %13, align 16
  store i32 1, i32* %5, align 4
  br label %14

14:                                               ; preds = %31, %0
  %15 = load i32, i32* %5, align 4
  %16 = icmp slt i32 %15, 12
  br i1 %16, label %17, label %34

17:                                               ; preds = %14
  %18 = load i32, i32* %5, align 4
  %19 = sub nsw i32 %18, 1
  %20 = sext i32 %19 to i64
  %21 = getelementptr inbounds [12 x i32], [12 x i32]* %4, i64 0, i64 %20
  %22 = load i32, i32* %21, align 4
  %23 = load i32, i32* %5, align 4
  %24 = sext i32 %23 to i64
  %25 = getelementptr inbounds [12 x i32], [12 x i32]* %3, i64 0, i64 %24
  %26 = load i32, i32* %25, align 4
  %27 = add nsw i32 %22, %26
  %28 = load i32, i32* %5, align 4
  %29 = sext i32 %28 to i64
  %30 = getelementptr inbounds [12 x i32], [12 x i32]* %4, i64 0, i64 %29
  store i32 %27, i32* %30, align 4
  br label %31

31:                                               ; preds = %17
  %32 = load i32, i32* %5, align 4
  %33 = add nsw i32 %32, 1
  store i32 %33, i32* %5, align 4
  br label %14

34:                                               ; preds = %14
  %35 = load i32, i32* %2, align 4
  %36 = icmp eq i32 %35, 5
  br i1 %36, label %37, label %38

37:                                               ; preds = %34
  store i32 1, i32* %7, align 4
  br label %52

38:                                               ; preds = %34
  %39 = load i32, i32* %2, align 4
  %40 = icmp slt i32 %39, 5
  br i1 %40, label %41, label %45

41:                                               ; preds = %38
  %42 = load i32, i32* %2, align 4
  %43 = sub nsw i32 5, %42
  %44 = add nsw i32 1, %43
  store i32 %44, i32* %7, align 4
  br label %51

45:                                               ; preds = %38
  %46 = load i32, i32* %2, align 4
  %47 = icmp eq i32 %46, 6
  br i1 %47, label %48, label %49

48:                                               ; preds = %45
  store i32 7, i32* %7, align 4
  br label %50

49:                                               ; preds = %45
  store i32 6, i32* %7, align 4
  br label %50

50:                                               ; preds = %49, %48
  br label %51

51:                                               ; preds = %50, %41
  br label %52

52:                                               ; preds = %51, %37
  store i32 1, i32* %9, align 4
  %53 = load i32, i32* %7, align 4
  %54 = getelementptr inbounds [53 x i32], [53 x i32]* %8, i64 0, i64 0
  store i32 %53, i32* %54, align 16
  store i32 1, i32* %5, align 4
  br label %55

55:                                               ; preds = %78, %52
  %56 = load i32, i32* %5, align 4
  %57 = icmp slt i32 %56, 53
  br i1 %57, label %58, label %81

58:                                               ; preds = %55
  %59 = load i32, i32* %5, align 4
  %60 = sub nsw i32 %59, 1
  %61 = sext i32 %60 to i64
  %62 = getelementptr inbounds [53 x i32], [53 x i32]* %8, i64 0, i64 %61
  %63 = load i32, i32* %62, align 4
  %64 = add nsw i32 %63, 7
  %65 = load i32, i32* %5, align 4
  %66 = sext i32 %65 to i64
  %67 = getelementptr inbounds [53 x i32], [53 x i32]* %8, i64 0, i64 %66
  store i32 %64, i32* %67, align 4
  %68 = load i32, i32* %5, align 4
  %69 = sext i32 %68 to i64
  %70 = getelementptr inbounds [53 x i32], [53 x i32]* %8, i64 0, i64 %69
  %71 = load i32, i32* %70, align 4
  %72 = icmp sle i32 %71, 365
  br i1 %72, label %73, label %76

73:                                               ; preds = %58
  %74 = load i32, i32* %9, align 4
  %75 = add nsw i32 %74, 1
  store i32 %75, i32* %9, align 4
  br label %77

76:                                               ; preds = %58
  br label %81

77:                                               ; preds = %73
  br label %78

78:                                               ; preds = %77
  %79 = load i32, i32* %5, align 4
  %80 = add nsw i32 %79, 1
  store i32 %80, i32* %5, align 4
  br label %55

81:                                               ; preds = %76, %55
  store i32 0, i32* %10, align 4
  store i32 0, i32* %5, align 4
  br label %82

82:                                               ; preds = %111, %81
  %83 = load i32, i32* %5, align 4
  %84 = load i32, i32* %9, align 4
  %85 = icmp slt i32 %83, %84
  br i1 %85, label %86, label %114

86:                                               ; preds = %82
  store i32 0, i32* %6, align 4
  br label %87

87:                                               ; preds = %107, %86
  %88 = load i32, i32* %6, align 4
  %89 = icmp slt i32 %88, 12
  br i1 %89, label %90, label %110

90:                                               ; preds = %87
  %91 = load i32, i32* %5, align 4
  %92 = sext i32 %91 to i64
  %93 = getelementptr inbounds [53 x i32], [53 x i32]* %8, i64 0, i64 %92
  %94 = load i32, i32* %93, align 4
  %95 = load i32, i32* %6, align 4
  %96 = sext i32 %95 to i64
  %97 = getelementptr inbounds [12 x i32], [12 x i32]* %4, i64 0, i64 %96
  %98 = load i32, i32* %97, align 4
  %99 = icmp eq i32 %94, %98
  br i1 %99, label %100, label %106

100:                                              ; preds = %90
  %101 = load i32, i32* %6, align 4
  %102 = add nsw i32 %101, 1
  %103 = call i32 (i8*, ...) @printf(i8* getelementptr inbounds ([4 x i8], [4 x i8]* @.str.1, i64 0, i64 0), i32 %102)
  %104 = load i32, i32* %10, align 4
  %105 = add nsw i32 %104, 1
  store i32 %105, i32* %10, align 4
  br label %106

106:                                              ; preds = %100, %90
  br label %107

107:                                              ; preds = %106
  %108 = load i32, i32* %6, align 4
  %109 = add nsw i32 %108, 1
  store i32 %109, i32* %6, align 4
  br label %87

110:                                              ; preds = %87
  br label %111

111:                                              ; preds = %110
  %112 = load i32, i32* %5, align 4
  %113 = add nsw i32 %112, 1
  store i32 %113, i32* %5, align 4
  br label %82

114:                                              ; preds = %82
  %115 = load i32, i32* %10, align 4
  %116 = icmp eq i32 %115, 0
  br i1 %116, label %117, label %119

117:                                              ; preds = %114
  %118 = call i32 (i8*, ...) @printf(i8* getelementptr inbounds ([6 x i8], [6 x i8]* @.str.2, i64 0, i64 0))
  br label %119

119:                                              ; preds = %117, %114
  ret i32 0
}

declare dso_local i32 @__isoc99_scanf(i8*, ...) #1

; Function Attrs: argmemonly nounwind willreturn
declare void @llvm.memcpy.p0i8.p0i8.i64(i8* noalias nocapture writeonly, i8* noalias nocapture readonly, i64, i1 immarg) #2

declare dso_local i32 @printf(i8*, ...) #1


!llvm.module.flags = !{!0}
!llvm.ident = !{!1}

!0 = !{i32 1, !"wchar_size", i32 4}
!1 = !{!"clang version 10.0.0-4ubuntu1 "}
